target datalayout = "e-m:e-p270:32:32-p271:32:32-p272:64:64-i64:64-i128:128-f80:128-n8:16:32:64-S128"
target triple = "x86_64-pc-linux-gnu"

%struct.DdManager = type { %struct.DdNode, ptr, ptr, ptr, ptr, ptr, ptr, ptr, i32, i32, double, double, double, i32, i32, i32, i32, i32, i32, ptr, ptr, %struct.DdSubtable, i32, i32, i32, i32, i32, i32, i32, double, i32, i32, i32, ptr, i64, double, i32, ptr, ptr, ptr, ptr, ptr, ptr, ptr, i32, ptr, ptr, ptr, ptr, ptr, ptr, i32, i32, i32, double, i32, i32, i32, i32, double, double, i32, i32, i32, i32, i32, i32, i32, i32, i32, ptr, ptr, i32, i32, i32, i32, i32, i32, ptr, ptr, ptr, ptr, ptr, ptr, ptr, ptr, i32, i64, i64, i64, i32, i64, i64, double, double, double, double, double, double, i32, ptr, ptr, i64 }
%struct.DdNode = type { i32, i32, ptr, %union.anon, i64 }
%union.anon = type { %struct.DdChildren }
%struct.DdChildren = type { ptr, ptr }
%struct.DdSubtable = type { ptr, i32, i32, i32, i32, i32, i32, i32, i32, i32, i32, i32 }

@memOut = internal global i32 0, align 4

; Function Attrs: nounwind uwtable
define ptr @Cudd_SubsetHeavyBranch(ptr noundef %0, ptr noundef %1, i32 noundef %2, i32 noundef %3) #0 {
  %5 = alloca ptr, align 8
  %6 = alloca ptr, align 8
  %7 = alloca i32, align 4
  %8 = alloca i32, align 4
  %9 = alloca ptr, align 8
  store ptr %0, ptr %5, align 8
  store ptr %1, ptr %6, align 8
  store i32 %2, ptr %7, align 4
  store i32 %3, ptr %8, align 4
  store i32 0, ptr @memOut, align 4
  br label %10

10:                                               ; preds = %27, %4
  %11 = load ptr, ptr %5, align 8
  %12 = getelementptr inbounds %struct.DdManager, ptr %11, i32 0, i32 55
  store i32 0, ptr %12, align 8
  %13 = load ptr, ptr %5, align 8
  %14 = load ptr, ptr %6, align 8
  %15 = load i32, ptr %7, align 4
  %16 = load i32, ptr %8, align 4
  %17 = call ptr @cuddSubsetHeavyBranch(ptr noundef %13, ptr noundef %14, i32 noundef %15, i32 noundef %16)
  store ptr %17, ptr %9, align 8
  br label %18

18:                                               ; preds = %10
  %19 = load ptr, ptr %5, align 8
  %20 = getelementptr inbounds %struct.DdManager, ptr %19, i32 0, i32 55
  %21 = load i32, ptr %20, align 8
  %22 = icmp eq i32 %21, 1
  br i1 %22, label %23, label %27

23:                                               ; preds = %18
  %24 = load i32, ptr @memOut, align 4
  %25 = icmp ne i32 %24, 0
  %26 = xor i1 %25, true
  br label %27

27:                                               ; preds = %23, %18
  %28 = phi i1 [ false, %18 ], [ %26, %23 ]
  br i1 %28, label %10, label %29, !llvm.loop !4

29:                                               ; preds = %27
  %30 = load ptr, ptr %9, align 8
  ret ptr %30
}