; Function Attrs: nounwind uwtable
define ptr @Cudd_SubsetHeavyBranch(ptr noundef initializes((448, 452)) %0, ptr noundef %1, i32 noundef %2, i32 noundef %3) local_unnamed_addr #0 {
  store i1 false, ptr @memOut, align 4
  %5 = getelementptr inbounds nuw i8, ptr %0, i64 448
  br label %6

6:                                                ; preds = %6, %4
  store i32 0, ptr %5, align 8
  %7 = tail call ptr @cuddSubsetHeavyBranch(ptr noundef %0, ptr noundef %1, i32 noundef %2, i32 noundef %3)
  %8 = load i32, ptr %5, align 8
  %9 = icmp ne i32 %8, 1
  %.b = load i1, ptr @memOut, align 4
  %.not6 = select i1 %9, i1 true, i1 %.b
  br i1 %.not6, label %10, label %6, !llvm.loop !4

10:                                               ; preds = %6
  ret ptr %7
}